Certificate:
    Data:
        Version: 3 (0x2)
        Serial Number: 1 (0x1)
    Signature Algorithm: sha1WithRSAEncryption
        Issuer: C=US, ST=Unset, L=Unset, O=Unset, CN=www.example.com
        Validity
            Not Before: Jul 21 03:42:19 2014 GMT
            Not After : Jul 18 03:42:19 2024 GMT
        Subject: C=US, ST=Unset, O=Unset, CN=www.example.com
        Subject Public Key Info:
            Public Key Algorithm: rsaEncryption
                Public-Key: (2048 bit)
                Modulus:
                    00:c4:cd:ac:29:e9:88:30:44:a9:02:f1:0e:1d:dd:
                    8a:f6:43:d7:8a:89:6c:9e:80:09:db:f5:0c:f1:cf:
                    d6:48:cb:3c:a3:06:95:d1:05:19:df:69:fa:80:14:
                    8b:0d:75:a1:d1:08:48:ef:1b:f4:0b:90:6b:65:d1:
                    3d:18:33:dc:f5:77:c0:3d:cb:d0:aa:6a:60:7b:fc:
                    42:f7:8e:75:77:e8:21:7b:5e:f0:99:b2:63:f1:eb:
                    4e:b6:75:e4:d2:b4:df:64:73:88:87:11:e2:3c:68:
                    fc:1e:e2:d8:e2:ce:de:ba:9b:12:6e:be:b6:f3:4f:
                    b5:25:56:76:3f:89:e9:db:85:0a:3f:de:82:1d:59:
                    65:ca:3a:31:9a:0e:a8:09:58:9c:6b:8d:71:3a:be:
                    83:84:44:5c:de:5f:54:ef:e0:36:c7:32:d9:41:00:
                    d2:84:55:1d:78:9d:d2:97:8f:64:47:b1:11:78:16:
                    d7:d7:95:5c:7a:9a:11:c5:3f:01:0c:91:e1:b2:21:
                    81:de:cf:f2:56:31:21:1d:7e:39:6e:50:2d:50:5b:
                    47:96:6f:ec:db:21:b8:7e:f0:c6:0e:e0:ce:0e:36:
                    32:e2:82:d5:46:fc:16:6b:fd:57:b0:69:ca:79:6c:
                    05:f4:fd:4e:24:c0:e5:98:67:77:e7:cb:62:73:1e:
                    f6:a7
                Exponent: 65537 (0x10001)
        X509v3 extensions:
            X509v3 Basic Constraints: 
                CA:FALSE
            X509v3 Subject Key Identifier: 
                AB:E0:E1:E1:8D:54:55:4E:D1:FA:DD:44:6D:27:A6:6B:A9:40:4B:E0
            X509v3 Authority Key Identifier: 
                keyid:18:0E:8E:0F:55:96:52:25:48:16:77:82:93:05:D7:E7:1B:5B:80:16

    Signature Algorithm: sha1WithRSAEncryption
         79:48:fe:12:20:74:b7:68:f3:55:40:9a:ea:fb:dd:22:b1:ac:
         f8:dd:f1:d8:90:f9:a6:e0:a4:62:7a:43:58:90:36:c1:c3:8e:
         7a:88:78:a8:48:1b:43:c2:79:3e:e9:7b:1b:68:17:bb:73:bc:
         34:4a:0e:db:12:4b:e6:7b:fd:3b:db:12:c0:9d:46:ab:0a:6d:
         fe:b1:51:29:e8:68:49:71:f5:85:9e:18:38:15:8c:42:51:37:
         46:c6:0f:fe:67:11:fa:09:4d:c7:c1:a5:bb:e7:7d:e4:4b:7b:
         6c:a3:82:5f:9b:d5:9b:be:b6:3e:4a:0e:c6:e0:40:61:29:a8:
         7b:5a:b6:cc:2d:39:91:f1:f7:cc:65:05:d4:db:df:12:3d:78:
         b5:8f:34:16:cd:7e:13:cc:72:30:74:44:b1:80:93:af:07:a4:
         42:c4:80:2f:26:b9:3f:45:83:a7:68:d6:37:73:56:64:4e:41:
         d7:77:4f:44:6b:d7:b1:ab:9d:39:d2:af:19:cb:91:57:55:5c:
         07:a5:66:4f:73:54:d3:56:5a:33:43:e0:28:82:86:74:9c:90:
         fd:a9:cb:01:ee:e0:fe:90:f9:0d:35:81:ee:7d:14:86:65:f1:
         3a:d6:db:60:e7:33:63:ad:d4:d8:4e:2a:35:47:4a:02:00:4b:
         0a:15:fc:c9
-----BEGIN CERTIFICATE-----
MIIDZjCCAk6gAwIBAgIBATANBgkqhkiG9w0BAQUFADBXMQswCQYDVQQGEwJVUzEO
MAwGA1UECAwFVW5zZXQxDjAMBgNVBAcMBVVuc2V0MQ4wDAYDVQQKDAVVbnNldDEY
MBYGA1UEAwwPd3d3LmV4YW1wbGUuY29tMB4XDTE0MDcyMTAzNDIxOVoXDTI0MDcx
ODAzNDIxOVowRzELMAkGA1UEBhMCVVMxDjAMBgNVBAgMBVVuc2V0MQ4wDAYDVQQK
DAVVbnNldDEYMBYGA1UEAwwPd3d3LmV4YW1wbGUuY29tMIIBIjANBgkqhkiG9w0B
AQEFAAOCAQ8AMIIBCgKCAQEAxM2sKemIMESpAvEOHd2K9kPXiolsnoAJ2/UM8c/W
SMs8owaV0QUZ32n6gBSLDXWh0QhI7xv0C5BrZdE9GDPc9XfAPcvQqmpge/xC9451
d+ghe17wmbJj8etOtnXk0rTfZHOIhxHiPGj8HuLY4s7eupsSbr6280+1JVZ2P4np
24UKP96CHVllyjoxmg6oCVica41xOr6DhERc3l9U7+A2xzLZQQDShFUdeJ3Sl49k
R7EReBbX15VcepoRxT8BDJHhsiGB3s/yVjEhHX45blAtUFtHlm/s2yG4fvDGDuDO
DjYy4oLVRvwWa/1XsGnKeWwF9P1OJMDlmGd358ticx72pwIDAQABo00wSzAJBgNV
HRMEAjAAMB0GA1UdDgQWBBSr4OHhjVRVTtH63URtJ6ZrqUBL4DAfBgNVHSMEGDAW
gBQYDo4PVZZSJUgWd4KTBdfnG1uAFjANBgkqhkiG9w0BAQUFAAOCAQEAeUj+EiB0
t2jzVUCa6vvdIrGs+N3x2JD5puCkYnpDWJA2wcOOeoh4qEgbQ8J5Pul7G2gXu3O8
NEoO2xJL5nv9O9sSwJ1Gqwpt/rFRKehoSXH1hZ4YOBWMQlE3RsYP/mcR+glNx8Gl
u+d95Et7bKOCX5vVm762PkoOxuBAYSmoe1q2zC05kfH3zGUF1NvfEj14tY80Fs1+
E8xyMHREsYCTrwekQsSALya5P0WDp2jWN3NWZE5B13dPRGvXsaudOdKvGcuRV1Vc
B6VmT3NU01ZaM0PgKIKGdJyQ/anLAe7g/pD5DTWB7n0UhmXxOtbbYOczY63U2E4q
NUdKAgBLChX8yQ==
-----END CERTIFICATE-----
